; Function Attrs: mustprogress uwtable
define hidden void @_ZN4cvc58internal6theory17DifficultyManager21notifyInputAssertionsERKSt6vectorINS0_12NodeTemplateILb1EEESaIS5_EE(ptr noundef nonnull align 8 dereferenceable(256) %this, ptr nocapture noundef nonnull readonly align 8 dereferenceable(24) %assertions) local_unnamed_addr #3 align 2 {
entry:
  %ref.tmp.i = alloca i8, align 1
  %0 = load ptr, ptr %assertions, align 8
  %_M_finish.i = getelementptr inbounds i8, ptr %assertions, i64 8
  %1 = load ptr, ptr %_M_finish.i, align 8
  %cmp.i.not4 = icmp eq ptr %0, %1
  br i1 %cmp.i.not4, label %for.end, label %for.body.lr.ph

for.body.lr.ph:                                   ; preds = %entry
  %d_input = getelementptr inbounds i8, ptr %this, i64 24
  br label %for.body

for.body:                                         ; preds = %for.body.lr.ph, %for.body
  %__begin2.sroa.0.05 = phi ptr [ %0, %for.body.lr.ph ], [ %incdec.ptr.i, %for.body ]
  call void @llvm.lifetime.start.p0(i64 1, ptr nonnull %ref.tmp.i)
  store i8 1, ptr %ref.tmp.i, align 1
  %call.i = call noundef zeroext i1 @_ZN4cvc57context15CDInsertHashMapINS_8internal12NodeTemplateILb1EEEbSt4hashIS4_EE11insert_safeERKS4_RKb(ptr noundef nonnull align 8 dereferenceable(56) %d_input, ptr noundef nonnull align 8 dereferenceable(8) %__begin2.sroa.0.05, ptr noundef nonnull align 1 dereferenceable(1) %ref.tmp.i)
  call void @llvm.lifetime.end.p0(i64 1, ptr nonnull %ref.tmp.i)
  %incdec.ptr.i = getelementptr inbounds i8, ptr %__begin2.sroa.0.05, i64 8
  %cmp.i.not = icmp eq ptr %incdec.ptr.i, %1
  br i1 %cmp.i.not, label %for.end, label %for.body

for.end:                                          ; preds = %for.body, %entry
  ret void
}